target datalayout = "e-m:e-p270:32:32-p271:32:32-p272:64:64-i64:64-i128:128-f80:128-n8:16:32:64-S128"
target triple = "x86_64-pc-linux-gnu"

; Function Attrs: nounwind uwtable
define internal i32 @luaB_dofile(ptr noundef %0) #0 {
  %2 = alloca ptr, align 8
  %3 = alloca ptr, align 8
  %4 = alloca i32, align 4
  store ptr %0, ptr %2, align 8, !tbaa !4
  call void @llvm.lifetime.start.p0(i64 8, ptr %3) #5
  %5 = load ptr, ptr %2, align 8, !tbaa !4
  %6 = call ptr @luaL_optlstring(ptr noundef %5, i32 noundef 1, ptr noundef null, ptr noundef null)
  store ptr %6, ptr %3, align 8, !tbaa !9
  call void @llvm.lifetime.start.p0(i64 4, ptr %4) #5
  %7 = load ptr, ptr %2, align 8, !tbaa !4
  %8 = call i32 @lua_gettop(ptr noundef %7)
  store i32 %8, ptr %4, align 4, !tbaa !12
  %9 = load ptr, ptr %2, align 8, !tbaa !4
  %10 = load ptr, ptr %3, align 8, !tbaa !9
  %11 = call i32 @luaL_loadfile(ptr noundef %9, ptr noundef %10)
  %12 = icmp ne i32 %11, 0
  br i1 %12, label %13, label %16

13:                                               ; preds = %1
  %14 = load ptr, ptr %2, align 8, !tbaa !4
  %15 = call i32 @lua_error(ptr noundef %14)
  br label %16

16:                                               ; preds = %13, %1
  %17 = load ptr, ptr %2, align 8, !tbaa !4
  call void @lua_call(ptr noundef %17, i32 noundef 0, i32 noundef -1)
  %18 = load ptr, ptr %2, align 8, !tbaa !4
  %19 = call i32 @lua_gettop(ptr noundef %18)
  %20 = load i32, ptr %4, align 4, !tbaa !12
  %21 = sub nsw i32 %19, %20
  call void @llvm.lifetime.end.p0(i64 4, ptr %4) #5
  call void @llvm.lifetime.end.p0(i64 8, ptr %3) #5
  ret i32 %21
}