; Function Attrs: nounwind uwtable
define internal i32 @luaB_dofile(ptr noundef %0) #0 {
  %2 = tail call ptr @luaL_optlstring(ptr noundef %0, i32 noundef 1, ptr noundef null, ptr noundef null) #8
  %3 = tail call i32 @lua_gettop(ptr noundef %0) #8
  %4 = tail call i32 @luaL_loadfile(ptr noundef %0, ptr noundef %2) #8
  %.not = icmp eq i32 %4, 0
  br i1 %.not, label %7, label %5

5:                                                ; preds = %1
  %6 = tail call i32 @lua_error(ptr noundef %0) #8
  br label %7

7:                                                ; preds = %5, %1
  tail call void @lua_call(ptr noundef %0, i32 noundef 0, i32 noundef -1) #8
  %8 = tail call i32 @lua_gettop(ptr noundef %0) #8
  %9 = sub nsw i32 %8, %3
  ret i32 %9
}